(dp0
S'Amelia_Vega'
p1
(lp2
S'/home/adil/Desktop/fdirs/dataset/knn_dataset/Amelia_Vega_0002.jpg'
p3
aS'/home/adil/Desktop/fdirs/dataset/knn_dataset/Amelia_Vega_0003.jpg'
p4
aS'/home/adil/Desktop/fdirs/dataset/knn_dataset/Amelia_Vega_0006.jpg'
p5
aS'/home/adil/Desktop/fdirs/dataset/knn_dataset/Amelia_Vega_0007.jpg'
p6
aS'/home/adil/Desktop/fdirs/dataset/knn_dataset/Amelia_Vega_0001.jpg'
p7
aS'/home/adil/Desktop/fdirs/dataset/knn_dataset/Amelia_Vega_0005.jpg'
p8
aS'/home/adil/Desktop/fdirs/dataset/knn_dataset/Amelia_Vega_0004.jpg'
p9
asS'Atal_Bihari'
p10
(lp11
S'/home/adil/Desktop/fdirs/dataset/knn_dataset/Atal_Bihari_Vajpayee_0007.jpg'
p12
aS'/home/adil/Desktop/fdirs/dataset/knn_dataset/Atal_Bihari_Vajpayee_0001.jpg'
p13
aS'/home/adil/Desktop/fdirs/dataset/knn_dataset/Atal_Bihari_Vajpayee_0008.jpg'
p14
aS'/home/adil/Desktop/fdirs/dataset/knn_dataset/Atal_Bihari_Vajpayee_0006.jpg'
p15
aS'/home/adil/Desktop/fdirs/dataset/knn_dataset/Atal_Bihari_Vajpayee_0003.jpg'
p16
aS'/home/adil/Desktop/fdirs/dataset/knn_dataset/Atal_Bihari_Vajpayee_0004.jpg'
p17
aS'/home/adil/Desktop/fdirs/dataset/knn_dataset/Atal_Bihari_Vajpayee_0005.jpg'
p18
asS'Alejandro_Toledo'
p19
(lp20
S'/home/adil/Desktop/fdirs/dataset/knn_dataset/Alejandro_Toledo_0005.jpg'
p21
aS'/home/adil/Desktop/fdirs/dataset/knn_dataset/Alejandro_Toledo_0007.jpg'
p22
aS'/home/adil/Desktop/fdirs/dataset/knn_dataset/Alejandro_Toledo_0002.jpg'
p23
aS'/home/adil/Desktop/fdirs/dataset/knn_dataset/Alejandro_Toledo_0006.jpg'
p24
aS'/home/adil/Desktop/fdirs/dataset/knn_dataset/Alejandro_Toledo_0008.jpg'
p25
aS'/home/adil/Desktop/fdirs/dataset/knn_dataset/Alejandro_Toledo_0004.jpg'
p26
aS'/home/adil/Desktop/fdirs/dataset/knn_dataset/Alejandro_Toledo_0001.jpg'
p27
asS'Anna_Kournikova'
p28
(lp29
S'/home/adil/Desktop/fdirs/dataset/knn_dataset/Anna_Kournikova_0003.jpg'
p30
aS'/home/adil/Desktop/fdirs/dataset/knn_dataset/Anna_Kournikova_0007.jpg'
p31
aS'/home/adil/Desktop/fdirs/dataset/knn_dataset/Anna_Kournikova_0005.jpg'
p32
aS'/home/adil/Desktop/fdirs/dataset/knn_dataset/Anna_Kournikova_0002.jpg'
p33
aS'/home/adil/Desktop/fdirs/dataset/knn_dataset/Anna_Kournikova_0001.jpg'
p34
aS'/home/adil/Desktop/fdirs/dataset/knn_dataset/Anna_Kournikova_0006.jpg'
p35
aS'/home/adil/Desktop/fdirs/dataset/knn_dataset/Anna_Kournikova_0004.jpg'
p36
asS'Ana_Palacio'
p37
(lp38
S'/home/adil/Desktop/fdirs/dataset/knn_dataset/Ana_Palacio_0006.jpg'
p39
aS'/home/adil/Desktop/fdirs/dataset/knn_dataset/Ana_Palacio_0001.jpg'
p40
aS'/home/adil/Desktop/fdirs/dataset/knn_dataset/Ana_Palacio_0007.jpg'
p41
aS'/home/adil/Desktop/fdirs/dataset/knn_dataset/Ana_Palacio_0004.jpg'
p42
aS'/home/adil/Desktop/fdirs/dataset/knn_dataset/Ana_Palacio_0005.jpg'
p43
aS'/home/adil/Desktop/fdirs/dataset/knn_dataset/Ana_Palacio_0002.jpg'
p44
aS'/home/adil/Desktop/fdirs/dataset/knn_dataset/Ana_Palacio_0003.jpg'
p45
asS'Alvaro_Uribe'
p46
(lp47
S'/home/adil/Desktop/fdirs/dataset/knn_dataset/Alvaro_Uribe_0003.jpg'
p48
aS'/home/adil/Desktop/fdirs/dataset/knn_dataset/Alvaro_Uribe_0002.jpg'
p49
aS'/home/adil/Desktop/fdirs/dataset/knn_dataset/Alvaro_Uribe_0007.jpg'
p50
aS'/home/adil/Desktop/fdirs/dataset/knn_dataset/Alvaro_Uribe_0006.jpg'
p51
aS'/home/adil/Desktop/fdirs/dataset/knn_dataset/Alvaro_Uribe_0005.jpg'
p52
aS'/home/adil/Desktop/fdirs/dataset/knn_dataset/Alvaro_Uribe_0004.jpg'
p53
aS'/home/adil/Desktop/fdirs/dataset/knn_dataset/Alvaro_Uribe_0001.jpg'
p54
asS'Bill_Simon'
p55
(lp56
S'/home/adil/Desktop/fdirs/dataset/knn_dataset/Bill_Simon_0006.jpg'
p57
aS'/home/adil/Desktop/fdirs/dataset/knn_dataset/Bill_Simon_0002.jpg'
p58
aS'/home/adil/Desktop/fdirs/dataset/knn_dataset/Bill_Simon_0001.jpg'
p59
aS'/home/adil/Desktop/fdirs/dataset/knn_dataset/Bill_Simon_0003.jpg'
p60
aS'/home/adil/Desktop/fdirs/dataset/knn_dataset/Bill_Simon_0007.jpg'
p61
aS'/home/adil/Desktop/fdirs/dataset/knn_dataset/Bill_Simon_0005.jpg'
p62
aS'/home/adil/Desktop/fdirs/dataset/knn_dataset/Bill_Simon_0004.jpg'
p63
asS'Al_Gore'
p64
(lp65
S'/home/adil/Desktop/fdirs/dataset/knn_dataset/Al_Gore_0007.jpg'
p66
aS'/home/adil/Desktop/fdirs/dataset/knn_dataset/Al_Gore_0003.jpg'
p67
aS'/home/adil/Desktop/fdirs/dataset/knn_dataset/Al_Gore_0001.jpg'
p68
aS'/home/adil/Desktop/fdirs/dataset/knn_dataset/Al_Gore_0006.jpg'
p69
aS'/home/adil/Desktop/fdirs/dataset/knn_dataset/Al_Gore_0005.jpg'
p70
aS'/home/adil/Desktop/fdirs/dataset/knn_dataset/Al_Gore_0002.jpg'
p71
aS'/home/adil/Desktop/fdirs/dataset/knn_dataset/Al_Gore_0004.jpg'
p72
asS'Ana_Guevara'
p73
(lp74
S'/home/adil/Desktop/fdirs/dataset/knn_dataset/Ana_Guevara_0007.jpg'
p75
aS'/home/adil/Desktop/fdirs/dataset/knn_dataset/Ana_Guevara_0001.jpg'
p76
aS'/home/adil/Desktop/fdirs/dataset/knn_dataset/Ana_Guevara_0003.jpg'
p77
aS'/home/adil/Desktop/fdirs/dataset/knn_dataset/Ana_Guevara_0004.jpg'
p78
aS'/home/adil/Desktop/fdirs/dataset/knn_dataset/Ana_Guevara_0002.jpg'
p79
aS'/home/adil/Desktop/fdirs/dataset/knn_dataset/Ana_Guevara_0005.jpg'
p80
aS'/home/adil/Desktop/fdirs/dataset/knn_dataset/Ana_Guevara_0006.jpg'
p81
asS'Bob_Stoops'
p82
(lp83
S'/home/adil/Desktop/fdirs/dataset/knn_dataset/Bob_Stoops_0001.jpg'
p84
aS'/home/adil/Desktop/fdirs/dataset/knn_dataset/Bob_Stoops_0007.jpg'
p85
aS'/home/adil/Desktop/fdirs/dataset/knn_dataset/Bob_Stoops_0003.jpg'
p86
aS'/home/adil/Desktop/fdirs/dataset/knn_dataset/Bob_Stoops_0006.jpg'
p87
aS'/home/adil/Desktop/fdirs/dataset/knn_dataset/Bob_Stoops_0004.jpg'
p88
aS'/home/adil/Desktop/fdirs/dataset/knn_dataset/Bob_Stoops_0005.jpg'
p89
aS'/home/adil/Desktop/fdirs/dataset/knn_dataset/Bob_Stoops_0002.jpg'
p90
asS'Amelie_Mauresmo'
p91
(lp92
S'/home/adil/Desktop/fdirs/dataset/knn_dataset/Amelie_Mauresmo_0001.jpg'
p93
aS'/home/adil/Desktop/fdirs/dataset/knn_dataset/Amelie_Mauresmo_0007.jpg'
p94
aS'/home/adil/Desktop/fdirs/dataset/knn_dataset/Amelie_Mauresmo_0005.jpg'
p95
aS'/home/adil/Desktop/fdirs/dataset/knn_dataset/Amelie_Mauresmo_0002.jpg'
p96
aS'/home/adil/Desktop/fdirs/dataset/knn_dataset/Amelie_Mauresmo_0006.jpg'
p97
aS'/home/adil/Desktop/fdirs/dataset/knn_dataset/Amelie_Mauresmo_0003.jpg'
p98
aS'/home/adil/Desktop/fdirs/dataset/knn_dataset/Amelie_Mauresmo_0004.jpg'
p99
asS'Ariel_Sharon'
p100
(lp101
S'/home/adil/Desktop/fdirs/dataset/knn_dataset/Ariel_Sharon_0005.jpg'
p102
aS'/home/adil/Desktop/fdirs/dataset/knn_dataset/Ariel_Sharon_0007.jpg'
p103
aS'/home/adil/Desktop/fdirs/dataset/knn_dataset/Ariel_Sharon_0002.jpg'
p104
aS'/home/adil/Desktop/fdirs/dataset/knn_dataset/Ariel_Sharon_0006.jpg'
p105
aS'/home/adil/Desktop/fdirs/dataset/knn_dataset/Ariel_Sharon_0001.jpg'
p106
aS'/home/adil/Desktop/fdirs/dataset/knn_dataset/Ariel_Sharon_0003.jpg'
p107
aS'/home/adil/Desktop/fdirs/dataset/knn_dataset/Ariel_Sharon_0004.jpg'
p108
asS'Bill_Frist'
p109
(lp110
S'/home/adil/Desktop/fdirs/dataset/knn_dataset/Bill_Frist_0003.jpg'
p111
aS'/home/adil/Desktop/fdirs/dataset/knn_dataset/Bill_Frist_0007.jpg'
p112
aS'/home/adil/Desktop/fdirs/dataset/knn_dataset/Bill_Frist_0001.jpg'
p113
aS'/home/adil/Desktop/fdirs/dataset/knn_dataset/Bill_Frist_0006.jpg'
p114
aS'/home/adil/Desktop/fdirs/dataset/knn_dataset/Bill_Frist_0002.jpg'
p115
aS'/home/adil/Desktop/fdirs/dataset/knn_dataset/Bill_Frist_0004.jpg'
p116
aS'/home/adil/Desktop/fdirs/dataset/knn_dataset/Bill_Frist_0005.jpg'
p117
asS'Angelina_Jolie'
p118
(lp119
S'/home/adil/Desktop/fdirs/dataset/knn_dataset/Angelina_Jolie_0006.jpg'
p120
aS'/home/adil/Desktop/fdirs/dataset/knn_dataset/Angelina_Jolie_0001.jpg'
p121
aS'/home/adil/Desktop/fdirs/dataset/knn_dataset/Angelina_Jolie_0007.jpg'
p122
aS'/home/adil/Desktop/fdirs/dataset/knn_dataset/Angelina_Jolie_0002.jpg'
p123
aS'/home/adil/Desktop/fdirs/dataset/knn_dataset/Angelina_Jolie_0005.jpg'
p124
aS'/home/adil/Desktop/fdirs/dataset/knn_dataset/Angelina_Jolie_0004.jpg'
p125
aS'/home/adil/Desktop/fdirs/dataset/knn_dataset/Angelina_Jolie_0003.jpg'
p126
asS'Bill_Graham'
p127
(lp128
S'/home/adil/Desktop/fdirs/dataset/knn_dataset/Bill_Graham_0001.jpg'
p129
aS'/home/adil/Desktop/fdirs/dataset/knn_dataset/Bill_Graham_0002.jpg'
p130
aS'/home/adil/Desktop/fdirs/dataset/knn_dataset/Bill_Graham_0007.jpg'
p131
aS'/home/adil/Desktop/fdirs/dataset/knn_dataset/Bill_Graham_0006.jpg'
p132
aS'/home/adil/Desktop/fdirs/dataset/knn_dataset/Bill_Graham_0004.jpg'
p133
aS'/home/adil/Desktop/fdirs/dataset/knn_dataset/Bill_Graham_0003.jpg'
p134
aS'/home/adil/Desktop/fdirs/dataset/knn_dataset/Bill_Graham_0005.jpg'
p135
asS'Ben_Affleck'
p136
(lp137
S'/home/adil/Desktop/fdirs/dataset/knn_dataset/Ben_Affleck_0002.jpg'
p138
aS'/home/adil/Desktop/fdirs/dataset/knn_dataset/Ben_Affleck_0004.jpg'
p139
aS'/home/adil/Desktop/fdirs/dataset/knn_dataset/Ben_Affleck_0005.jpg'
p140
aS'/home/adil/Desktop/fdirs/dataset/knn_dataset/Ben_Affleck_0007.jpg'
p141
aS'/home/adil/Desktop/fdirs/dataset/knn_dataset/Ben_Affleck_0003.jpg'
p142
aS'/home/adil/Desktop/fdirs/dataset/knn_dataset/Ben_Affleck_0006.jpg'
p143
aS'/home/adil/Desktop/fdirs/dataset/knn_dataset/Ben_Affleck_0001.jpg'
p144
asS'Bill_Clinton'
p145
(lp146
S'/home/adil/Desktop/fdirs/dataset/knn_dataset/Bill_Clinton_0001.jpg'
p147
aS'/home/adil/Desktop/fdirs/dataset/knn_dataset/Bill_Clinton_0006.jpg'
p148
aS'/home/adil/Desktop/fdirs/dataset/knn_dataset/Bill_Clinton_0005.jpg'
p149
aS'/home/adil/Desktop/fdirs/dataset/knn_dataset/Bill_Clinton_0003.jpg'
p150
aS'/home/adil/Desktop/fdirs/dataset/knn_dataset/Bill_Clinton_0004.jpg'
p151
aS'/home/adil/Desktop/fdirs/dataset/knn_dataset/Bill_Clinton_0007.jpg'
p152
aS'/home/adil/Desktop/fdirs/dataset/knn_dataset/Bill_Clinton_0002.jpg'
p153
asS'Abdullah_Gul'
p154
(lp155
S'/home/adil/Desktop/fdirs/dataset/knn_dataset/Abdullah_Gul_0003.jpg'
p156
aS'/home/adil/Desktop/fdirs/dataset/knn_dataset/Abdullah_Gul_0001.jpg'
p157
aS'/home/adil/Desktop/fdirs/dataset/knn_dataset/Abdullah_Gul_0004.jpg'
p158
aS'/home/adil/Desktop/fdirs/dataset/knn_dataset/Abdullah_Gul_0007.jpg'
p159
aS'/home/adil/Desktop/fdirs/dataset/knn_dataset/Abdullah_Gul_0005.jpg'
p160
aS'/home/adil/Desktop/fdirs/dataset/knn_dataset/Abdullah_Gul_0002.jpg'
p161
aS'/home/adil/Desktop/fdirs/dataset/knn_dataset/Abdullah_Gul_0006.jpg'
p162
asS'Britney_Spears'
p163
(lp164
S'/home/adil/Desktop/fdirs/dataset/knn_dataset/Britney_Spears_0002.jpg'
p165
aS'/home/adil/Desktop/fdirs/dataset/knn_dataset/Britney_Spears_0003.jpg'
p166
aS'/home/adil/Desktop/fdirs/dataset/knn_dataset/Britney_Spears_0005.jpg'
p167
aS'/home/adil/Desktop/fdirs/dataset/knn_dataset/Britney_Spears_0007.jpg'
p168
aS'/home/adil/Desktop/fdirs/dataset/knn_dataset/Britney_Spears_0001.jpg'
p169
aS'/home/adil/Desktop/fdirs/dataset/knn_dataset/Britney_Spears_0006.jpg'
p170
aS'/home/adil/Desktop/fdirs/dataset/knn_dataset/Britney_Spears_0004.jpg'
p171
asS'Arnold_Schwarzenegger'
p172
(lp173
S'/home/adil/Desktop/fdirs/dataset/knn_dataset/Arnold_Schwarzenegger_0009.jpg'
p174
aS'/home/adil/Desktop/fdirs/dataset/knn_dataset/Arnold_Schwarzenegger_0006.jpg'
p175
aS'/home/adil/Desktop/fdirs/dataset/knn_dataset/Arnold_Schwarzenegger_0005.jpg'
p176
aS'/home/adil/Desktop/fdirs/dataset/knn_dataset/Arnold_Schwarzenegger_0002.jpg'
p177
aS'/home/adil/Desktop/fdirs/dataset/knn_dataset/Arnold_Schwarzenegger_0004.jpg'
p178
aS'/home/adil/Desktop/fdirs/dataset/knn_dataset/Arnold_Schwarzenegger_0003.jpg'
p179
aS'/home/adil/Desktop/fdirs/dataset/knn_dataset/Arnold_Schwarzenegger_0001.jpg'
p180
asS'Antonio_Palocci'
p181
(lp182
S'/home/adil/Desktop/fdirs/dataset/knn_dataset/Antonio_Palocci_0005.jpg'
p183
aS'/home/adil/Desktop/fdirs/dataset/knn_dataset/Antonio_Palocci_0004.jpg'
p184
aS'/home/adil/Desktop/fdirs/dataset/knn_dataset/Antonio_Palocci_0001.jpg'
p185
aS'/home/adil/Desktop/fdirs/dataset/knn_dataset/Antonio_Palocci_0007.jpg'
p186
aS'/home/adil/Desktop/fdirs/dataset/knn_dataset/Antonio_Palocci_0002.jpg'
p187
aS'/home/adil/Desktop/fdirs/dataset/knn_dataset/Antonio_Palocci_0003.jpg'
p188
aS'/home/adil/Desktop/fdirs/dataset/knn_dataset/Antonio_Palocci_0006.jpg'
p189
asS'Ann_Veneman'
p190
(lp191
S'/home/adil/Desktop/fdirs/dataset/knn_dataset/Ann_Veneman_0007.jpg'
p192
aS'/home/adil/Desktop/fdirs/dataset/knn_dataset/Ann_Veneman_0003.jpg'
p193
aS'/home/adil/Desktop/fdirs/dataset/knn_dataset/Ann_Veneman_0005.jpg'
p194
aS'/home/adil/Desktop/fdirs/dataset/knn_dataset/Ann_Veneman_0002.jpg'
p195
aS'/home/adil/Desktop/fdirs/dataset/knn_dataset/Ann_Veneman_0001.jpg'
p196
aS'/home/adil/Desktop/fdirs/dataset/knn_dataset/Ann_Veneman_0004.jpg'
p197
aS'/home/adil/Desktop/fdirs/dataset/knn_dataset/Ann_Veneman_0006.jpg'
p198
asS'Bill_Gates'
p199
(lp200
S'/home/adil/Desktop/fdirs/dataset/knn_dataset/Bill_Gates_0002.jpg'
p201
aS'/home/adil/Desktop/fdirs/dataset/knn_dataset/Bill_Gates_0001.jpg'
p202
aS'/home/adil/Desktop/fdirs/dataset/knn_dataset/Bill_Gates_0004.jpg'
p203
aS'/home/adil/Desktop/fdirs/dataset/knn_dataset/Bill_Gates_0003.jpg'
p204
aS'/home/adil/Desktop/fdirs/dataset/knn_dataset/Bill_Gates_0006.jpg'
p205
aS'/home/adil/Desktop/fdirs/dataset/knn_dataset/Bill_Gates_0005.jpg'
p206
aS'/home/adil/Desktop/fdirs/dataset/knn_dataset/Bill_Gates_0007.jpg'
p207
asS'Adrien_Brody'
p208
(lp209
S'/home/adil/Desktop/fdirs/dataset/knn_dataset/Adrien_Brody_0007.jpg'
p210
aS'/home/adil/Desktop/fdirs/dataset/knn_dataset/Adrien_Brody_0005.jpg'
p211
aS'/home/adil/Desktop/fdirs/dataset/knn_dataset/Adrien_Brody_0004.jpg'
p212
aS'/home/adil/Desktop/fdirs/dataset/knn_dataset/Adrien_Brody_0003.jpg'
p213
aS'/home/adil/Desktop/fdirs/dataset/knn_dataset/Adrien_Brody_0002.jpg'
p214
aS'/home/adil/Desktop/fdirs/dataset/knn_dataset/Adrien_Brody_0006.jpg'
p215
aS'/home/adil/Desktop/fdirs/dataset/knn_dataset/Adrien_Brody_0001.jpg'
p216
asS'Carlos_Menem'
p217
(lp218
S'/home/adil/Desktop/fdirs/dataset/knn_dataset/Carlos_Menem_0006.jpg'
p219
aS'/home/adil/Desktop/fdirs/dataset/knn_dataset/Carlos_Menem_0003.jpg'
p220
aS'/home/adil/Desktop/fdirs/dataset/knn_dataset/Carlos_Menem_0008.jpg'
p221
aS'/home/adil/Desktop/fdirs/dataset/knn_dataset/Carlos_Menem_0005.jpg'
p222
aS'/home/adil/Desktop/fdirs/dataset/knn_dataset/Carlos_Menem_0001.jpg'
p223
aS'/home/adil/Desktop/fdirs/dataset/knn_dataset/Carlos_Menem_0004.jpg'
p224
aS'/home/adil/Desktop/fdirs/dataset/knn_dataset/Carlos_Menem_0002.jpg'
p225
asS'Ari_Fleischer'
p226
(lp227
S'/home/adil/Desktop/fdirs/dataset/knn_dataset/Ari_Fleischer_0002.jpg'
p228
aS'/home/adil/Desktop/fdirs/dataset/knn_dataset/Ari_Fleischer_0005.jpg'
p229
aS'/home/adil/Desktop/fdirs/dataset/knn_dataset/Ari_Fleischer_0004.jpg'
p230
aS'/home/adil/Desktop/fdirs/dataset/knn_dataset/Ari_Fleischer_0006.jpg'
p231
aS'/home/adil/Desktop/fdirs/dataset/knn_dataset/Ari_Fleischer_0003.jpg'
p232
aS'/home/adil/Desktop/fdirs/dataset/knn_dataset/Ari_Fleischer_0007.jpg'
p233
aS'/home/adil/Desktop/fdirs/dataset/knn_dataset/Ari_Fleischer_0001.jpg'
p234
asS'Binyamin_Ben-Eliezer'
p235
(lp236
S'/home/adil/Desktop/fdirs/dataset/knn_dataset/Binyamin_Ben-Eliezer_0005.jpg'
p237
aS'/home/adil/Desktop/fdirs/dataset/knn_dataset/Binyamin_Ben-Eliezer_0006.jpg'
p238
aS'/home/adil/Desktop/fdirs/dataset/knn_dataset/Binyamin_Ben-Eliezer_0003.jpg'
p239
aS'/home/adil/Desktop/fdirs/dataset/knn_dataset/Binyamin_Ben-Eliezer_0004.jpg'
p240
aS'/home/adil/Desktop/fdirs/dataset/knn_dataset/Binyamin_Ben-Eliezer_0002.jpg'
p241
aS'/home/adil/Desktop/fdirs/dataset/knn_dataset/Binyamin_Ben-Eliezer_0001.jpg'
p242
aS'/home/adil/Desktop/fdirs/dataset/knn_dataset/Binyamin_Ben-Eliezer_0007.jpg'
p243
asS'Andre_Agassi'
p244
(lp245
S'/home/adil/Desktop/fdirs/dataset/knn_dataset/Andre_Agassi_0006.jpg'
p246
aS'/home/adil/Desktop/fdirs/dataset/knn_dataset/Andre_Agassi_0008.jpg'
p247
aS'/home/adil/Desktop/fdirs/dataset/knn_dataset/Andre_Agassi_0003.jpg'
p248
aS'/home/adil/Desktop/fdirs/dataset/knn_dataset/Andre_Agassi_0005.jpg'
p249
aS'/home/adil/Desktop/fdirs/dataset/knn_dataset/Andre_Agassi_0004.jpg'
p250
aS'/home/adil/Desktop/fdirs/dataset/knn_dataset/Andre_Agassi_0002.jpg'
p251
aS'/home/adil/Desktop/fdirs/dataset/knn_dataset/Andre_Agassi_0007.jpg'
p252
asS'Andy_Roddick'
p253
(lp254
S'/home/adil/Desktop/fdirs/dataset/knn_dataset/Andy_Roddick_0001.jpg'
p255
aS'/home/adil/Desktop/fdirs/dataset/knn_dataset/Andy_Roddick_0003.jpg'
p256
aS'/home/adil/Desktop/fdirs/dataset/knn_dataset/Andy_Roddick_0006.jpg'
p257
aS'/home/adil/Desktop/fdirs/dataset/knn_dataset/Andy_Roddick_0005.jpg'
p258
aS'/home/adil/Desktop/fdirs/dataset/knn_dataset/Andy_Roddick_0004.jpg'
p259
aS'/home/adil/Desktop/fdirs/dataset/knn_dataset/Andy_Roddick_0007.jpg'
p260
aS'/home/adil/Desktop/fdirs/dataset/knn_dataset/Andy_Roddick_0002.jpg'
p261
asS'Carlos_Moya'
p262
(lp263
S'/home/adil/Desktop/fdirs/dataset/knn_dataset/Carlos_Moya_0002.jpg'
p264
aS'/home/adil/Desktop/fdirs/dataset/knn_dataset/Carlos_Moya_0004.jpg'
p265
aS'/home/adil/Desktop/fdirs/dataset/knn_dataset/Carlos_Moya_0006.jpg'
p266
aS'/home/adil/Desktop/fdirs/dataset/knn_dataset/Carlos_Moya_0007.jpg'
p267
aS'/home/adil/Desktop/fdirs/dataset/knn_dataset/Carlos_Moya_0003.jpg'
p268
aS'/home/adil/Desktop/fdirs/dataset/knn_dataset/Carlos_Moya_0001.jpg'
p269
aS'/home/adil/Desktop/fdirs/dataset/knn_dataset/Carlos_Moya_0005.jpg'
p270
as.